; Function Attrs: mustprogress nofree norecurse nosync nounwind willreturn memory(write, argmem: readwrite, inaccessiblemem: none) uwtable
define dso_local void @_ZN4Luau6Tarjan8setDirtyEib(ptr noundef nonnull readonly align 8 captures(none) dereferenceable(224) %0, i32 noundef %1, i1 noundef zeroext %2) local_unnamed_addr #8 align 2 {
  %4 = zext i1 %2 to i8
  %5 = getelementptr inbounds nuw i8, ptr %0, i64 88
  %6 = sext i32 %1 to i64
  %7 = load ptr, ptr %5, align 8, !tbaa !35
  %8 = getelementptr inbounds nuw %"struct.Luau::TarjanNode", ptr %7, i64 %6, i32 3
  store i8 %4, ptr %8, align 1, !tbaa !164
  ret void
}